; ModuleID = 'source-C-CXX/38/2210.c'
source_filename = "source-C-CXX/38/2210.c"
target datalayout = "e-m:e-p270:32:32-p271:32:32-p272:64:64-i64:64-f80:128-n8:16:32:64-S128"
target triple = "x86_64-pc-linux-gnu"

%struct.st = type { [30 x i8], i32, i32, i8, i8, i32, i32, %struct.st* }

@.str = private unnamed_addr constant [3 x i8] c"%d\00", align 1
@.str.1 = private unnamed_addr constant [18 x i8] c"%s %d %d %c %c %d\00", align 1
@.str.2 = private unnamed_addr constant [10 x i8] c"%s\0A%d\0A%d\0A\00", align 1

; Function Attrs: nofree nounwind sspstrong uwtable
define dso_local void @main() local_unnamed_addr #0 {
  %1 = alloca i32, align 4
  %2 = bitcast i32* %1 to i8*
  call void @llvm.lifetime.start.p0i8(i64 4, i8* nonnull %2) #4
  %3 = call i32 (i8*, ...) @__isoc99_scanf(i8* getelementptr inbounds ([3 x i8], [3 x i8]* @.str, i64 0, i64 0), i32* nonnull %1)
  %4 = call noalias align 16 dereferenceable_or_null(64) i8* @malloc(i64 64) #4
  %5 = bitcast i8* %4 to %struct.st*
  br label %6

6:                                                ; preds = %51, %0
  %7 = phi i32 [ 0, %0 ], [ %16, %51 ]
  %8 = phi %struct.st* [ %5, %0 ], [ %53, %51 ]
  %9 = getelementptr inbounds %struct.st, %struct.st* %8, i64 0, i32 0, i64 0
  %10 = getelementptr inbounds %struct.st, %struct.st* %8, i64 0, i32 1
  %11 = getelementptr inbounds %struct.st, %struct.st* %8, i64 0, i32 2
  %12 = getelementptr inbounds %struct.st, %struct.st* %8, i64 0, i32 3
  %13 = getelementptr inbounds %struct.st, %struct.st* %8, i64 0, i32 4
  %14 = getelementptr inbounds %struct.st, %struct.st* %8, i64 0, i32 5
  %15 = call i32 (i8*, ...) @__isoc99_scanf(i8* getelementptr inbounds ([18 x i8], [18 x i8]* @.str.1, i64 0, i64 0), i8* %9, i32* nonnull %10, i32* nonnull %11, i8* nonnull %12, i8* nonnull %13, i32* nonnull %14)
  %16 = add nuw nsw i32 %7, 1
  %17 = getelementptr inbounds %struct.st, %struct.st* %8, i64 0, i32 6
  store i32 0, i32* %17, align 8, !tbaa !5
  %18 = load i32, i32* %10, align 8, !tbaa !11
  %19 = icmp sgt i32 %18, 80
  br i1 %19, label %20, label %42

20:                                               ; preds = %6
  %21 = load i32, i32* %14, align 4, !tbaa !12
  %22 = icmp sgt i32 %21, 0
  br i1 %22, label %23, label %24

23:                                               ; preds = %20
  store i32 8000, i32* %17, align 8, !tbaa !5
  br label %24

24:                                               ; preds = %23, %20
  %25 = phi i32 [ 8000, %23 ], [ 0, %20 ]
  %26 = icmp sgt i32 %18, 85
  br i1 %26, label %27, label %42

27:                                               ; preds = %24
  %28 = load i32, i32* %11, align 4, !tbaa !13
  %29 = icmp sgt i32 %28, 80
  %30 = add nuw nsw i32 %25, 4000
  %31 = select i1 %29, i32 %30, i32 %25
  %32 = icmp sgt i32 %18, 90
  %33 = add nuw nsw i32 %31, 2000
  %34 = select i1 %32, i32 %33, i32 %31
  %35 = or i1 %29, %32
  br i1 %35, label %36, label %37

36:                                               ; preds = %27
  store i32 %34, i32* %17, align 8, !tbaa !5
  br label %37

37:                                               ; preds = %27, %36
  %38 = load i8, i8* %13, align 1, !tbaa !14
  %39 = icmp eq i8 %38, 89
  br i1 %39, label %40, label %42

40:                                               ; preds = %37
  %41 = add nuw nsw i32 %34, 1000
  store i32 %41, i32* %17, align 8, !tbaa !5
  br label %42

42:                                               ; preds = %24, %6, %40, %37
  %43 = phi i32 [ %25, %24 ], [ 0, %6 ], [ %41, %40 ], [ %34, %37 ]
  %44 = load i32, i32* %11, align 4, !tbaa !13
  %45 = icmp sgt i32 %44, 80
  br i1 %45, label %46, label %51

46:                                               ; preds = %42
  %47 = load i8, i8* %12, align 8, !tbaa !15
  %48 = icmp eq i8 %47, 89
  br i1 %48, label %49, label %51

49:                                               ; preds = %46
  %50 = add nuw nsw i32 %43, 850
  store i32 %50, i32* %17, align 8, !tbaa !5
  br label %51

51:                                               ; preds = %49, %46, %42
  %52 = call noalias align 16 dereferenceable_or_null(64) i8* @malloc(i64 64) #4
  %53 = bitcast i8* %52 to %struct.st*
  %54 = getelementptr inbounds %struct.st, %struct.st* %8, i64 0, i32 7
  %55 = bitcast %struct.st** %54 to i8**
  store i8* %52, i8** %55, align 8, !tbaa !16
  %56 = load i32, i32* %1, align 4, !tbaa !17
  %57 = icmp eq i32 %16, %56
  br i1 %57, label %58, label %6, !llvm.loop !18

58:                                               ; preds = %51
  %59 = add nuw i32 %7, 1
  %60 = and i32 %59, 1
  %61 = icmp eq i32 %7, 0
  br i1 %61, label %88, label %62

62:                                               ; preds = %58
  %63 = and i32 %59, -2
  br label %64

64:                                               ; preds = %64, %62
  %65 = phi i32 [ 0, %62 ], [ %80, %64 ]
  %66 = phi i32 [ 0, %62 ], [ %82, %64 ]
  %67 = phi %struct.st* [ %5, %62 ], [ %85, %64 ]
  %68 = phi %struct.st* [ undef, %62 ], [ %83, %64 ]
  %69 = phi i32 [ %63, %62 ], [ %86, %64 ]
  %70 = getelementptr inbounds %struct.st, %struct.st* %67, i64 0, i32 6
  %71 = load i32, i32* %70, align 8, !tbaa !5
  %72 = add nsw i32 %71, %65
  %73 = icmp sgt i32 %71, %66
  %74 = select i1 %73, i32 %71, i32 %66
  %75 = select i1 %73, %struct.st* %67, %struct.st* %68
  %76 = getelementptr inbounds %struct.st, %struct.st* %67, i64 0, i32 7
  %77 = load %struct.st*, %struct.st** %76, align 8, !tbaa !16
  %78 = getelementptr inbounds %struct.st, %struct.st* %77, i64 0, i32 6
  %79 = load i32, i32* %78, align 8, !tbaa !5
  %80 = add nsw i32 %79, %72
  %81 = icmp sgt i32 %79, %74
  %82 = select i1 %81, i32 %79, i32 %74
  %83 = select i1 %81, %struct.st* %77, %struct.st* %75
  %84 = getelementptr inbounds %struct.st, %struct.st* %77, i64 0, i32 7
  %85 = load %struct.st*, %struct.st** %84, align 8, !tbaa !16
  %86 = add i32 %69, -2
  %87 = icmp eq i32 %86, 0
  br i1 %87, label %88, label %64, !llvm.loop !20

88:                                               ; preds = %64, %58
  %89 = phi i32 [ undef, %58 ], [ %80, %64 ]
  %90 = phi i32 [ undef, %58 ], [ %82, %64 ]
  %91 = phi i32 [ 0, %58 ], [ %80, %64 ]
  %92 = phi i32 [ 0, %58 ], [ %82, %64 ]
  %93 = phi %struct.st* [ %5, %58 ], [ %85, %64 ]
  %94 = phi %struct.st* [ undef, %58 ], [ %83, %64 ]
  %95 = icmp eq i32 %60, 0
  br i1 %95, label %103, label %96

96:                                               ; preds = %88
  %97 = getelementptr inbounds %struct.st, %struct.st* %93, i64 0, i32 6
  %98 = load i32, i32* %97, align 8, !tbaa !5
  %99 = icmp sgt i32 %98, %92
  %100 = select i1 %99, %struct.st* %93, %struct.st* %94
  %101 = select i1 %99, i32 %98, i32 %92
  %102 = add nsw i32 %98, %91
  br label %103

103:                                              ; preds = %88, %96
  %104 = phi i32 [ %89, %88 ], [ %102, %96 ]
  %105 = phi i32 [ %90, %88 ], [ %101, %96 ]
  %106 = phi %struct.st* [ %94, %88 ], [ %100, %96 ]
  %107 = getelementptr inbounds %struct.st, %struct.st* %106, i64 0, i32 0, i64 0
  %108 = call i32 (i8*, ...) @printf(i8* nonnull dereferenceable(1) getelementptr inbounds ([10 x i8], [10 x i8]* @.str.2, i64 0, i64 0), i8* %107, i32 %105, i32 %104)
  call void @llvm.lifetime.end.p0i8(i64 4, i8* nonnull %2) #4
  ret void
}

; Function Attrs: argmemonly mustprogress nofree nosync nounwind willreturn
declare void @llvm.lifetime.start.p0i8(i64 immarg, i8* nocapture) #1

; Function Attrs: nofree nounwind
declare noundef i32 @__isoc99_scanf(i8* nocapture noundef readonly, ...) local_unnamed_addr #2

; Function Attrs: inaccessiblememonly mustprogress nofree nounwind willreturn
declare noalias noundef align 16 i8* @malloc(i64 noundef) local_unnamed_addr #3

; Function Attrs: nofree nounwind
declare noundef i32 @printf(i8* nocapture noundef readonly, ...) local_unnamed_addr #2

; Function Attrs: argmemonly mustprogress nofree nosync nounwind willreturn
declare void @llvm.lifetime.end.p0i8(i64 immarg, i8* nocapture) #1


!llvm.module.flags = !{!0, !1, !2, !3}
!llvm.ident = !{!4}

!0 = !{i32 1, !"wchar_size", i32 4}
!1 = !{i32 7, !"PIC Level", i32 2}
!2 = !{i32 7, !"PIE Level", i32 2}
!3 = !{i32 7, !"uwtable", i32 1}
!4 = !{!"clang version 13.0.0"}
!5 = !{!6, !9, i64 48}
!6 = !{!"st", !7, i64 0, !9, i64 32, !9, i64 36, !7, i64 40, !7, i64 41, !9, i64 44, !9, i64 48, !10, i64 56}
!7 = !{!"omnipotent char", !8, i64 0}
!8 = !{!"Simple C/C++ TBAA"}
!9 = !{!"int", !7, i64 0}
!10 = !{!"any pointer", !7, i64 0}
!11 = !{!6, !9, i64 32}
!12 = !{!6, !9, i64 44}
!13 = !{!6, !9, i64 36}
!14 = !{!6, !7, i64 41}
!15 = !{!6, !7, i64 40}
!16 = !{!6, !10, i64 56}
!17 = !{!9, !9, i64 0}
!18 = distinct !{!18, !19}
!19 = !{!"llvm.loop.mustprogress"}
!20 = distinct !{!20, !19}
